; Function Attrs: mustprogress nofree nounwind willreturn memory(read, inaccessiblemem: none) uwtable
define hidden noundef range(i32 0, 2) i32 @_ZNK11OpenImageIO6v3_1_010TIFFOutput8supportsENS0_17basic_string_viewIcSt11char_traitsIcEEE(ptr nonnull readnone align 8 captures(none) %0, ptr noundef readonly captures(none) %1) unnamed_addr #10 align 2 personality ptr @__gxx_personality_v0 {
  %3 = load ptr, ptr %1, align 8, !tbaa !18
  %4 = getelementptr inbounds nuw i8, ptr %1, i64 8
  %5 = load i64, ptr %4, align 8, !tbaa !20
  switch i64 %5, label %_ZN11OpenImageIO6v3_1_0eqENS0_17basic_string_viewIcSt11char_traitsIcEEES4_.exit40.thread [
    i64 5, label %_ZNSt11char_traitsIcE7compareEPKcS2_m.exit.i.i
    i64 10, label %_ZNSt11char_traitsIcE7compareEPKcS2_m.exit.i.i1
    i64 14, label %_ZNSt11char_traitsIcE7compareEPKcS2_m.exit.i.i6
    i64 9, label %_ZNSt11char_traitsIcE7compareEPKcS2_m.exit.i.i16
    i64 6, label %_ZNSt11char_traitsIcE7compareEPKcS2_m.exit.i.i21
    i64 4, label %_ZNSt11char_traitsIcE7compareEPKcS2_m.exit.i.i26
    i64 7, label %_ZNSt11char_traitsIcE7compareEPKcS2_m.exit.i.i36
  ]

_ZNSt11char_traitsIcE7compareEPKcS2_m.exit.i.i:   ; preds = %2
  %bcmp.i = tail call i32 @bcmp(ptr noundef nonnull dereferenceable(5) %3, ptr noundef nonnull dereferenceable(5) @.str.8, i64 5)
  %.not.i.i = icmp eq i32 %bcmp.i, 0
  br i1 %.not.i.i, label %_ZN11OpenImageIO6v3_1_0eqENS0_17basic_string_viewIcSt11char_traitsIcEEES4_.exit, label %_ZNSt11char_traitsIcE7compareEPKcS2_m.exit.i.i11

_ZNSt11char_traitsIcE7compareEPKcS2_m.exit.i.i1:  ; preds = %2
  %bcmp.i2 = tail call i32 @bcmp(ptr %3, ptr nonnull @.str.9, i64 %5)
  %.not.i.i3 = icmp eq i32 %bcmp.i2, 0
  br i1 %.not.i.i3, label %_ZN11OpenImageIO6v3_1_0eqENS0_17basic_string_viewIcSt11char_traitsIcEEES4_.exit, label %_ZN11OpenImageIO6v3_1_0eqENS0_17basic_string_viewIcSt11char_traitsIcEEES4_.exit40.thread

_ZNSt11char_traitsIcE7compareEPKcS2_m.exit.i.i6:  ; preds = %2
  %bcmp.i7 = tail call i32 @bcmp(ptr %3, ptr nonnull @.str.10, i64 %5)
  %.not.i.i8 = icmp eq i32 %bcmp.i7, 0
  br i1 %.not.i.i8, label %_ZN11OpenImageIO6v3_1_0eqENS0_17basic_string_viewIcSt11char_traitsIcEEES4_.exit, label %_ZN11OpenImageIO6v3_1_0eqENS0_17basic_string_viewIcSt11char_traitsIcEEES4_.exit40.thread

_ZNSt11char_traitsIcE7compareEPKcS2_m.exit.i.i11: ; preds = %_ZNSt11char_traitsIcE7compareEPKcS2_m.exit.i.i
  %bcmp.i12 = tail call i32 @bcmp(ptr nonnull %3, ptr nonnull @.str.11, i64 %5)
  %.not.i.i13 = icmp eq i32 %bcmp.i12, 0
  br i1 %.not.i.i13, label %_ZN11OpenImageIO6v3_1_0eqENS0_17basic_string_viewIcSt11char_traitsIcEEES4_.exit, label %_ZN11OpenImageIO6v3_1_0eqENS0_17basic_string_viewIcSt11char_traitsIcEEES4_.exit40.thread

_ZNSt11char_traitsIcE7compareEPKcS2_m.exit.i.i16: ; preds = %2
  %bcmp.i17 = tail call i32 @bcmp(ptr %3, ptr nonnull @.str.12, i64 %5)
  %.not.i.i18 = icmp eq i32 %bcmp.i17, 0
  br i1 %.not.i.i18, label %_ZN11OpenImageIO6v3_1_0eqENS0_17basic_string_viewIcSt11char_traitsIcEEES4_.exit, label %_ZN11OpenImageIO6v3_1_0eqENS0_17basic_string_viewIcSt11char_traitsIcEEES4_.exit40.thread

_ZNSt11char_traitsIcE7compareEPKcS2_m.exit.i.i21: ; preds = %2
  %bcmp.i22 = tail call i32 @bcmp(ptr %3, ptr nonnull @.str.13, i64 %5)
  %.not.i.i23 = icmp eq i32 %bcmp.i22, 0
  br i1 %.not.i.i23, label %_ZN11OpenImageIO6v3_1_0eqENS0_17basic_string_viewIcSt11char_traitsIcEEES4_.exit, label %_ZN11OpenImageIO6v3_1_0eqENS0_17basic_string_viewIcSt11char_traitsIcEEES4_.exit40.thread

_ZNSt11char_traitsIcE7compareEPKcS2_m.exit.i.i26: ; preds = %2
  %bcmp.i27 = tail call i32 @bcmp(ptr %3, ptr nonnull @.str.14, i64 %5)
  %.not.i.i28 = icmp eq i32 %bcmp.i27, 0
  br i1 %.not.i.i28, label %_ZN11OpenImageIO6v3_1_0eqENS0_17basic_string_viewIcSt11char_traitsIcEEES4_.exit, label %_ZNSt11char_traitsIcE7compareEPKcS2_m.exit.i.i31

_ZNSt11char_traitsIcE7compareEPKcS2_m.exit.i.i31: ; preds = %_ZNSt11char_traitsIcE7compareEPKcS2_m.exit.i.i26
  %bcmp.i32 = tail call i32 @bcmp(ptr noundef nonnull dereferenceable(4) %3, ptr noundef nonnull dereferenceable(4) @.str.15, i64 4)
  %.not.i.i33 = icmp eq i32 %bcmp.i32, 0
  br i1 %.not.i.i33, label %_ZN11OpenImageIO6v3_1_0eqENS0_17basic_string_viewIcSt11char_traitsIcEEES4_.exit, label %_ZN11OpenImageIO6v3_1_0eqENS0_17basic_string_viewIcSt11char_traitsIcEEES4_.exit40.thread

_ZNSt11char_traitsIcE7compareEPKcS2_m.exit.i.i36: ; preds = %2
  %bcmp.i37 = tail call i32 @bcmp(ptr %3, ptr nonnull @.str.16, i64 %5)
  %.not.i.i38 = icmp eq i32 %bcmp.i37, 0
  br i1 %.not.i.i38, label %_ZN11OpenImageIO6v3_1_0eqENS0_17basic_string_viewIcSt11char_traitsIcEEES4_.exit, label %_ZN11OpenImageIO6v3_1_0eqENS0_17basic_string_viewIcSt11char_traitsIcEEES4_.exit40.thread

_ZN11OpenImageIO6v3_1_0eqENS0_17basic_string_viewIcSt11char_traitsIcEEES4_.exit40.thread: ; preds = %_ZNSt11char_traitsIcE7compareEPKcS2_m.exit.i.i21, %_ZNSt11char_traitsIcE7compareEPKcS2_m.exit.i.i16, %_ZNSt11char_traitsIcE7compareEPKcS2_m.exit.i.i11, %_ZNSt11char_traitsIcE7compareEPKcS2_m.exit.i.i6, %_ZNSt11char_traitsIcE7compareEPKcS2_m.exit.i.i1, %_ZNSt11char_traitsIcE7compareEPKcS2_m.exit.i.i31, %2, %_ZNSt11char_traitsIcE7compareEPKcS2_m.exit.i.i36
  br label %_ZN11OpenImageIO6v3_1_0eqENS0_17basic_string_viewIcSt11char_traitsIcEEES4_.exit

_ZN11OpenImageIO6v3_1_0eqENS0_17basic_string_viewIcSt11char_traitsIcEEES4_.exit: ; preds = %_ZN11OpenImageIO6v3_1_0eqENS0_17basic_string_viewIcSt11char_traitsIcEEES4_.exit40.thread, %_ZNSt11char_traitsIcE7compareEPKcS2_m.exit.i.i36, %_ZNSt11char_traitsIcE7compareEPKcS2_m.exit.i.i31, %_ZNSt11char_traitsIcE7compareEPKcS2_m.exit.i.i26, %_ZNSt11char_traitsIcE7compareEPKcS2_m.exit.i.i21, %_ZNSt11char_traitsIcE7compareEPKcS2_m.exit.i.i16, %_ZNSt11char_traitsIcE7compareEPKcS2_m.exit.i.i11, %_ZNSt11char_traitsIcE7compareEPKcS2_m.exit.i.i6, %_ZNSt11char_traitsIcE7compareEPKcS2_m.exit.i.i1, %_ZNSt11char_traitsIcE7compareEPKcS2_m.exit.i.i
  %.0 = phi i32 [ 1, %_ZNSt11char_traitsIcE7compareEPKcS2_m.exit.i.i ], [ 1, %_ZNSt11char_traitsIcE7compareEPKcS2_m.exit.i.i1 ], [ 1, %_ZNSt11char_traitsIcE7compareEPKcS2_m.exit.i.i6 ], [ 1, %_ZNSt11char_traitsIcE7compareEPKcS2_m.exit.i.i11 ], [ 1, %_ZNSt11char_traitsIcE7compareEPKcS2_m.exit.i.i16 ], [ 1, %_ZNSt11char_traitsIcE7compareEPKcS2_m.exit.i.i21 ], [ 1, %_ZNSt11char_traitsIcE7compareEPKcS2_m.exit.i.i26 ], [ 1, %_ZNSt11char_traitsIcE7compareEPKcS2_m.exit.i.i31 ], [ 0, %_ZN11OpenImageIO6v3_1_0eqENS0_17basic_string_viewIcSt11char_traitsIcEEES4_.exit40.thread ], [ 1, %_ZNSt11char_traitsIcE7compareEPKcS2_m.exit.i.i36 ]
  ret i32 %.0
}